target datalayout = "e-m:e-p270:32:32-p271:32:32-p272:64:64-i64:64-i128:128-f80:128-n8:16:32:64-S128"
target triple = "x86_64-pc-linux-gnu"

%struct.tng_chain = type { ptr, i64, ptr, i64, ptr }
%struct.tng_residue = type { ptr, i64, ptr, i64, i64 }

; Function Attrs: nounwind uwtable
define i32 @tng_chain_residue_add(ptr noundef %0, ptr noundef %1, ptr noundef %2, ptr noundef %3) #0 {
  %5 = alloca ptr, align 8
  %6 = alloca ptr, align 8
  %7 = alloca ptr, align 8
  %8 = alloca ptr, align 8
  %9 = alloca i64, align 8
  store ptr %0, ptr %5, align 8, !tbaa !3
  store ptr %1, ptr %6, align 8, !tbaa !59
  store ptr %2, ptr %7, align 8, !tbaa !19
  store ptr %3, ptr %8, align 8, !tbaa !10
  call void @llvm.lifetime.start.p0(i64 8, ptr %9) #11
  %10 = load ptr, ptr %6, align 8, !tbaa !59
  %11 = getelementptr inbounds nuw %struct.tng_chain, ptr %10, i32 0, i32 3
  %12 = load i64, ptr %11, align 8, !tbaa !73
  %13 = icmp ne i64 %12, 0
  br i1 %13, label %14, label %26

14:                                               ; preds = %4
  %15 = load ptr, ptr %6, align 8, !tbaa !59
  %16 = getelementptr inbounds nuw %struct.tng_chain, ptr %15, i32 0, i32 4
  %17 = load ptr, ptr %16, align 8, !tbaa !74
  %18 = load ptr, ptr %6, align 8, !tbaa !59
  %19 = getelementptr inbounds nuw %struct.tng_chain, ptr %18, i32 0, i32 3
  %20 = load i64, ptr %19, align 8, !tbaa !73
  %21 = sub nsw i64 %20, 1
  %22 = getelementptr inbounds %struct.tng_residue, ptr %17, i64 %21
  %23 = getelementptr inbounds nuw %struct.tng_residue, ptr %22, i32 0, i32 1
  %24 = load i64, ptr %23, align 8, !tbaa !77
  %25 = add nsw i64 %24, 1
  store i64 %25, ptr %9, align 8, !tbaa !26
  br label %27

26:                                               ; preds = %4
  store i64 0, ptr %9, align 8, !tbaa !26
  br label %27

27:                                               ; preds = %26, %14
  %28 = load ptr, ptr %5, align 8, !tbaa !3
  %29 = load ptr, ptr %6, align 8, !tbaa !59
  %30 = load ptr, ptr %7, align 8, !tbaa !19
  %31 = load i64, ptr %9, align 8, !tbaa !26
  %32 = load ptr, ptr %8, align 8, !tbaa !10
  %33 = call i32 @tng_chain_residue_w_id_add(ptr noundef %28, ptr noundef %29, ptr noundef %30, i64 noundef %31, ptr noundef %32)
  call void @llvm.lifetime.end.p0(i64 8, ptr %9) #11
  ret i32 %33
}