; Function Attrs: nounwind uwtable
define range(i32 0, 3) i32 @tng_chain_residue_add(ptr noundef readnone captures(none) %0, ptr noundef %1, ptr noundef readonly captures(none) %2, ptr noundef captures(none) %3) local_unnamed_addr #4 {
  %5 = getelementptr inbounds nuw i8, ptr %1, i64 24
  %6 = load i64, ptr %5, align 8, !tbaa !59
  %.not = icmp eq i64 %6, 0
  br i1 %.not, label %14, label %7

7:                                                ; preds = %4
  %8 = getelementptr inbounds nuw i8, ptr %1, i64 32
  %9 = load ptr, ptr %8, align 8, !tbaa !60
  %10 = getelementptr %struct.tng_residue, ptr %9, i64 %6
  %11 = getelementptr i8, ptr %10, i64 -32
  %12 = load i64, ptr %11, align 8, !tbaa !63
  %13 = add nsw i64 %12, 1
  br label %14

14:                                               ; preds = %4, %7
  %.0 = phi i64 [ %13, %7 ], [ 0, %4 ]
  %15 = tail call i32 @tng_chain_residue_w_id_add(ptr poison, ptr noundef nonnull %1, ptr noundef %2, i64 noundef %.0, ptr noundef %3)
  ret i32 %15
}